(lp0
(lp1
I377
aI364
aI161
aI361
aI282
aI51
aa(lp2
I379
aI364
aI167
aI393
aI291
aI51
aa(lp3
I389
aI371
aI167
aI313
aI287
aI47
aa(lp4
I377
aI366
aI167
aI95
aI287
aI63
aa(lp5
I380
aI368
aI169
aI377
aI286
aI45
aa(lp6
I377
aI366
aI167
aI338
aI288
aI45
aa(lp7
I391
aI372
aI161
aI121
aI287
aI47
aa(lp8
I395
aI375
aI163
aI375
aI299
aI47
aa(lp9
I404
aI381
aI165
aI188
aI299
aI47
aa(lp10
I391
aI376
aI161
aI375
aI297
aI47
aa(lp11
I375
aI360
aI165
aI373
aI295
aI47
aa(lp12
I375
aI363
aI168
aI393
aI297
aI49
aa(lp13
I379
aI360
aI165
aI379
aI297
aI63
aa(lp14
I381
aI367
aI169
aI123
aI289
aI47
aa(lp15
I382
aI371
aI169
aI375
aI285
aI47
aa(lp16
I382
aI368
aI169
aI373
aI283
aI45
aa(lp17
I477
aI379
aI173
aI194
aI281
aI45
aa(lp18
I395
aI375
aI169
aI375
aI282
aI47
aa(lp19
I395
aI378
aI169
aI295
aI279
aI61
aa(lp20
I395
aI377
aI170
aI99
aI212
aI57
aa(lp21
I398
aI380
aI169
aI373
aI275
aI67
aa(lp22
I487
aI420
aI12
aI353
aI275
aI77
aa(lp23
I383
aI367
aI12
aI99
aI105
aI81
aa(lp24
I393
aI405
aI507
aI375
aI105
aI83
aa(lp25
I427
aI375
aI14
aI208
aI286
aI45
aa(lp26
I251
aI281
aI12
aI56
aI271
aI33
aa(lp27
I417
aI376
aI13
aI254
aI263
aI29
aa(lp28
I490
aI428
aI12
aI329
aI262
aI23
aa(lp29
I474
aI425
aI12
aI48
aI293
aI29
aa(lp30
I507
aI449
aI14
aI254
aI299
aI25
aa(lp31
I469
aI429
aI12
aI347
aI301
aI27
aa(lp32
I501
aI446
aI12
aI131
aI115
aI33
aa(lp33
I149
aI243
aI12
aI254
aI316
aI41
aa(lp34
I139
aI256
aI472
aI375
aI327
aI41
aa(lp35
I124
aI221
aI506
aI71
aI343
aI39
aa(lp36
I128
aI202
aI286
aI254
aI361
aI29
aa(lp37
I112
aI234
aI501
aI397
aI371
aI35
aa(lp38
I113
aI210
aI507
aI52
aI149
aI71
aa(lp39
I113
aI205
aI506
aI117
aI407
aI79
aa(lp40
I111
aI181
aI109
aI119
aI409
aI49
aa(lp41
I141
aI208
aI109
aI127
aI506
aI39
aa(lp42
I507
aI422
aI91
aI254
aI109
aI31
aa(lp43
I165
aI239
aI95
aI409
aI329
aI27
aa(lp44
I162
aI235
aI288
aI203
aI169
aI27
aa(lp45
I160
aI229
aI294
aI226
aI254
aI37
aa(lp46
I272
aI295
aI265
aI228
aI179
aI41
aa(lp47
I253
aI296
aI228
aI119
aI254
aI33
aa(lp48
I183
aI266
aI425
aI254
aI137
aI315
aa(lp49
I145
aI235
aI348
aI214
aI210
aI29
aa(lp50
I141
aI220
aI342
aI228
aI228
aI45
aa(lp51
I183
aI252
aI421
aI236
aI293
aI57
aa(lp52
I181
aI250
aI431
aI179
aI310
aI45
aa(lp53
I181
aI247
aI494
aI109
aI317
aI43
aa(lp54
I187
aI251
aI506
aI107
aI319
aI71
aa(lp55
I196
aI254
aI495
aI109
aI323
aI73
aa(lp56
I185
aI244
aI506
aI109
aI321
aI51
aa(lp57
I183
aI244
aI478
aI107
aI317
aI49
aa(lp58
I184
aI239
aI413
aI107
aI315
aI49
aa(lp59
I194
aI250
aI485
aI107
aI272
aI77
aa(lp60
I194
aI253
aI482
aI107
aI312
aI43
aa(lp61
I195
aI249
aI415
aI214
aI268
aI43
aa(lp62
I192
aI247
aI414
aI254
aI309
aI71
aa(lp63
I150
aI233
aI324
aI236
aI307
aI43
aa(lp64
I145
aI219
aI288
aI159
aI248
aI43
aa(lp65
I153
aI230
aI219
aI224
aI305
aI51
aa(lp66
I163
aI253
aI330
aI226
aI264
aI45
aa(lp67
I165
aI240
aI312
aI212
aI303
aI53
aa(lp68
I179
aI256
aI201
aI210
aI242
aI45
aa(lp69
I204
aI273
aI395
aI206
aI321
aI55
aa(lp70
I210
aI277
aI387
aI206
aI262
aI55
aa(lp71
I212
aI273
aI398
aI117
aI333
aI85
aa(lp72
I213
aI265
aI395
aI133
aI342
aI65
aa(lp73
I210
aI272
aI385
aI103
aI345
aI253
aa(lp74
I203
aI259
aI382
aI224
aI353
aI55
aa.