(lp0
(lp1
I175
aI243
aI254
aI190
aI167
aI29
aa(lp2
I294
aI310
aI257
aI177
aI254
aI47
aa(lp3
I435
aI394
aI232
aI169
aI254
aI43
aa(lp4
I435
aI402
aI232
aI184
aI254
aI45
aa(lp5
I388
aI373
aI236
aI190
aI506
aI41
aa(lp6
I383
aI367
aI248
aI24
aI487
aI41
aa(lp7
I334
aI342
aI291
aI315
aI477
aI43
aa(lp8
I260
aI295
aI240
aI190
aI506
aI29
aa(lp9
I183
aI243
aI105
aI442
aI506
aI41
aa(lp10
I162
aI230
aI217
aI288
aI187
aI49
aa(lp11
I113
aI207
aI30
aI68
aI188
aI45
aa(lp12
I106
aI213
aI214
aI246
aI135
aI47
aa(lp13
I77
aI194
aI26
aI277
aI228
aI41
aa(lp14
I64
aI176
aI28
aI30
aI222
aI43
aa(lp15
I46
aI169
aI25
aI254
aI230
aI39
aa(lp16
I30
aI163
aI18
aI323
aI259
aI31
aa(lp17
I64
aI196
aI62
aI330
aI255
aI33
aa(lp18
I345
aI344
aI52
aI56
aI254
aI49
aa(lp19
I506
aI440
aI44
aI30
aI254
aI51
aa(lp20
I335
aI347
aI42
aI26
aI506
aI59
aa(lp21
I401
aI388
aI101
aI32
aI507
aI45
aa(lp22
I506
aI451
aI163
aI77
aI508
aI31
aa(lp23
I507
aI450
aI188
aI101
aI508
aI29
aa(lp24
I507
aI454
aI507
aI151
aI246
aI27
aa(lp25
I507
aI434
aI151
aI119
aI232
aI29
aa(lp26
I499
aI444
aI159
aI101
aI212
aI23
aa(lp27
I491
aI440
aI119
aI145
aI204
aI29
aa(lp28
I451
aI421
aI129
aI101
aI200
aI33
aa.