(lp0
(lp1
I507
aI435
aI406
aI187
aI202
aI35
aa(lp2
I507
aI441
aI409
aI38
aI109
aI77
aa(lp3
I507
aI452
aI409
aI206
aI109
aI71
aa(lp4
I507
aI454
aI411
aI36
aI109
aI67
aa(lp5
I507
aI456
aI413
aI30
aI109
aI73
aa(lp6
I507
aI459
aI418
aI97
aI109
aI73
aa(lp7
I507
aI460
aI411
aI208
aI109
aI79
aa(lp8
I507
aI459
aI413
aI63
aI111
aI65
aa(lp9
I506
aI463
aI413
aI208
aI111
aI75
aa(lp10
I445
aI405
aI415
aI147
aI111
aI73
aa(lp11
I445
aI395
aI177
aI222
aI115
aI71
aa(lp12
I445
aI404
aI160
aI230
aI115
aI73
aa(lp13
I501
aI461
aI417
aI222
aI117
aI67
aa(lp14
I507
aI444
aI157
aI254
aI117
aI65
aa(lp15
I507
aI452
aI157
aI462
aI117
aI65
aa(lp16
I507
aI453
aI157
aI244
aI117
aI87
aa(lp17
I507
aI453
aI151
aI26
aI119
aI73
aa(lp18
I445
aI421
aI157
aI254
aI119
aI81
aa(lp19
I445
aI417
aI157
aI264
aI121
aI253
aa(lp20
I443
aI413
aI157
aI51
aI121
aI65
aa(lp21
I445
aI415
aI155
aI254
aI123
aI79
aa(lp22
I445
aI414
aI143
aI299
aI123
aI79
aa(lp23
I439
aI409
aI143
aI79
aI279
aI65
aa(lp24
I478
aI433
aI141
aI254
aI279
aI253
aa(lp25
I507
aI453
aI141
aI311
aI279
aI253
aa(lp26
I506
aI454
aI139
aI99
aI279
aI253
aa(lp27
I507
aI457
aI141
aI254
aI275
aI75
aa(lp28
I484
aI444
aI139
aI353
aI129
aI75
aa(lp29
I507
aI455
aI139
aI143
aI128
aI75
aa(lp30
I507
aI458
aI139
aI254
aI129
aI73
aa(lp31
I506
aI459
aI139
aI375
aI113
aI253
aa(lp32
I485
aI445
aI139
aI163
aI131
aI85
aa(lp33
I466
aI428
aI72
aI254
aI131
aI85
aa(lp34
I342
aI359
aI139
aI405
aI133
aI73
aa(lp35
I362
aI360
aI139
aI179
aI133
aI73
aa(lp36
I349
aI355
aI182
aI419
aI135
aI73
aa(lp37
I340
aI346
aI183
aI419
aI135
aI95
aa(lp38
I340
aI344
aI183
aI212
aI137
aI83
aa(lp39
I348
aI349
aI181
aI419
aI139
aI79
aa(lp40
I336
aI337
aI125
aI417
aI259
aI79
aa(lp41
I335
aI339
aI144
aI246
aI257
aI67
aa(lp42
I340
aI343
aI180
aI26
aI257
aI77
aa(lp43
I336
aI342
aI183
aI417
aI257
aI75
aa(lp44
I347
aI347
aI183
aI270
aI256
aI75
aa(lp45
I336
aI340
aI183
aI52
aI256
aI67
aa(lp46
I336
aI341
aI182
aI161
aI254
aI67
aa(lp47
I334
aI341
aI183
aI303
aI254
aI77
aa(lp48
I334
aI333
aI99
aI85
aI254
aI85
aa(lp49
I334
aI344
aI182
aI417
aI254
aI83
aa(lp50
I334
aI341
aI183
aI330
aI253
aI77
aa(lp51
I334
aI338
aI185
aI91
aI254
aI67
aa(lp52
I338
aI342
aI186
aI419
aI252
aI75
aa(lp53
I479
aI425
aI147
aI299
aI141
aI85
aa(lp54
I501
aI439
aI145
aI83
aI135
aI71
aa(lp55
I506
aI452
aI145
aI254
aI276
aI83
aa(lp56
I506
aI446
aI161
aI295
aI275
aI65
aa(lp57
I506
aI451
aI162
aI75
aI123
aI65
aa(lp58
I507
aI456
aI174
aI254
aI125
aI75
aa(lp59
I488
aI456
aI401
aI319
aI125
aI85
aa(lp60
I506
aI460
aI367
aI63
aI125
aI67
aa(lp61
I507
aI458
aI285
aI232
aI254
aI71
aa(lp62
I238
aI286
aI288
aI214
aI456
aI83
aa(lp63
I240
aI288
aI311
aI188
aI450
aI83
aa(lp64
I238
aI278
aI312
aI32
aI453
aI83
aa(lp65
I235
aI284
aI302
aI186
aI452
aI71
aa(lp66
I234
aI280
aI310
aI188
aI453
aI71
aa(lp67
I234
aI280
aI311
aI26
aI453
aI93
aa(lp68
I234
aI277
aI311
aI189
aI453
aI109
aa(lp69
I234
aI275
aI313
aI188
aI450
aI85
aa(lp70
I236
aI275
aI312
aI101
aI303
aI73
aa(lp71
I239
aI284
aI295
aI187
aI303
aI75
aa(lp72
I240
aI274
aI213
aI184
aI303
aI75
aa(lp73
I240
aI282
aI306
aI85
aI305
aI83
aa(lp74
I242
aI281
aI306
aI182
aI307
aI67
aa(lp75
I242
aI280
aI306
aI181
aI455
aI67
aa(lp76
I244
aI279
aI306
aI93
aI457
aI83
aa(lp77
I244
aI279
aI304
aI181
aI456
aI73
aa(lp78
I245
aI279
aI304
aI181
aI456
aI73
aa(lp79
I242
aI275
aI275
aI113
aI459
aI73
aa(lp80
I242
aI269
aI183
aI103
aI457
aI73
aa(lp81
I242
aI268
aI100
aI180
aI457
aI71
aa(lp82
I242
aI286
aI304
aI139
aI456
aI71
aa(lp83
I242
aI280
aI304
aI179
aI457
aI73
aa(lp84
I242
aI279
aI304
aI179
aI457
aI75
aa(lp85
I242
aI278
aI304
aI163
aI457
aI75
aa(lp86
I242
aI277
aI303
aI179
aI457
aI73
aa(lp87
I242
aI278
aI302
aI179
aI457
aI77
aa(lp88
I242
aI280
aI302
aI178
aI457
aI77
aa(lp89
I242
aI266
aI85
aI178
aI457
aI79
aa(lp90
I242
aI286
aI301
aI178
aI224
aI83
aa(lp91
I242
aI280
aI302
aI137
aI456
aI75
aa(lp92
I242
aI279
aI304
aI179
aI457
aI75
aa(lp93
I242
aI278
aI304
aI179
aI456
aI79
aa(lp94
I242
aI277
aI304
aI179
aI456
aI79
aa(lp95
I242
aI273
aI244
aI179
aI456
aI79
aa(lp96
I242
aI280
aI292
aI179
aI457
aI77
aa(lp97
I242
aI267
aI69
aI178
aI194
aI77
aa(lp98
I242
aI285
aI303
aI36
aI457
aI75
aa(lp99
I242
aI280
aI304
aI179
aI457
aI77
aa(lp100
I242
aI278
aI303
aI101
aI456
aI73
aa(lp101
I242
aI277
aI304
aI58
aI456
aI73
aa(lp102
I242
aI278
aI303
aI179
aI456
aI79
aa(lp103
I242
aI276
aI270
aI179
aI457
aI73
aa(lp104
I242
aI267
aI134
aI73
aI457
aI79
aa(lp105
I242
aI266
aI50
aI179
aI457
aI77
aa(lp106
I242
aI285
aI303
aI179
aI457
aI75
aa(lp107
I72
aI185
aI304
aI97
aI457
aI83
aa(lp108
I92
aI190
aI303
aI179
aI457
aI83
aa(lp109
I94
aI190
aI304
aI179
aI457
aI83
aa(lp110
I92
aI188
aI304
aI127
aI457
aI83
aa(lp111
I97
aI190
aI281
aI155
aI457
aI73
aa(lp112
I97
aI196
aI301
aI179
aI457
aI75
aa(lp113
I216
aI250
aI60
aI149
aI457
aI65
aa(lp114
I97
aI201
aI303
aI179
aI457
aI65
aa(lp115
I95
aI193
aI304
aI179
aI456
aI65
aa(lp116
I240
aI275
aI304
aI161
aI457
aI75
aa(lp117
I96
aI196
aI303
aI179
aI457
aI73
aa(lp118
I96
aI192
aI304
aI60
aI457
aI73
aa(lp119
I95
aI187
aI239
aI179
aI457
aI83
aa(lp120
I94
aI181
aI147
aI133
aI457
aI83
aa(lp121
I94
aI180
aI66
aI179
aI457
aI83
aa(lp122
I93
aI196
aI304
aI179
aI457
aI77
aa(lp123
I93
aI191
aI304
aI179
aI456
aI73
aa(lp124
I93
aI190
aI303
aI179
aI457
aI77
aa(lp125
I93
aI189
aI304
aI179
aI457
aI73
aa(lp126
I93
aI188
aI304
aI181
aI457
aI79
aa(lp127
I93
aI187
aI279
aI179
aI457
aI65
aa(lp128
I93
aI180
aI162
aI179
aI456
aI75
aa(lp129
I95
aI178
aI76
aI32
aI457
aI73
aa(lp130
I94
aI198
aI304
aI178
aI457
aI79
aa(lp131
I242
aI277
aI304
aI179
aI456
aI73
aa(lp132
I95
aI195
aI304
aI54
aI456
aI75
aa(lp133
I99
aI193
aI304
aI179
aI457
aI81
aa(lp134
I99
aI193
aI304
aI179
aI457
aI75
aa(lp135
I99
aI192
aI303
aI72
aI456
aI73
aa(lp136
I97
aI183
aI169
aI48
aI457
aI77
aa(lp137
I97
aI182
aI89
aI178
aI457
aI75
aa(lp138
I97
aI200
aI303
aI93
aI457
aI75
aa(lp139
I98
aI194
aI303
aI179
aI457
aI65
aa(lp140
I96
aI192
aI304
aI178
aI457
aI67
aa(lp141
I96
aI190
aI304
aI115
aI457
aI75
aa(lp142
I105
aI195
aI304
aI179
aI457
aI79
aa(lp143
I95
aI189
aI273
aI178
aI457
aI79
aa(lp144
I92
aI180
aI179
aI139
aI456
aI75
aa(lp145
I91
aI178
aI97
aI36
aI457
aI75
aa(lp146
I122
aI213
aI303
aI179
aI457
aI75
aa(lp147
I242
aI274
aI304
aI107
aI456
aI77
aa(lp148
I242
aI277
aI304
aI179
aI456
aI75
aa(lp149
I240
aI277
aI302
aI141
aI44
aI65
aa(lp150
I240
aI278
aI302
aI175
aI36
aI65
aa(lp151
I240
aI276
aI266
aI181
aI254
aI71
aa(lp152
I240
aI280
aI301
aI180
aI459
aI65
aa(lp153
I242
aI278
aI230
aI180
aI457
aI73
aa(lp154
I242
aI284
aI306
aI178
aI456
aI71
aa(lp155
I242
aI279
aI305
aI22
aI456
aI77
aa(lp156
I242
aI284
aI305
aI16
aI455
aI77
aa(lp157
I242
aI279
aI300
aI179
aI455
aI81
aa(lp158
I242
aI280
aI302
aI178
aI457
aI73
aa(lp159
I242
aI266
aI129
aI51
aI457
aI73
aa(lp160
I242
aI283
aI301
aI32
aI459
aI65
aa(lp161
I242
aI281
aI303
aI179
aI458
aI65
aa(lp162
I242
aI274
aI186
aI97
aI459
aI65
aa(lp163
I242
aI282
aI304
aI178
aI458
aI65
aa(lp164
I242
aI279
aI304
aI167
aI456
aI79
aa(lp165
I242
aI278
aI304
aI179
aI456
aI75
aa(lp166
I242
aI270
aI205
aI26
aI457
aI77
aa(lp167
I242
aI268
aI103
aI179
aI456
aI73
aa(lp168
I240
aI284
aI303
aI180
aI457
aI67
aa(lp169
I240
aI277
aI302
aI46
aI459
aI65
aa(lp170
I240
aI277
aI302
aI181
aI459
aI65
aa(lp171
I240
aI276
aI303
aI71
aI459
aI65
aa(lp172
I240
aI276
aI304
aI69
aI456
aI83
aa(lp173
I242
aI284
aI306
aI180
aI456
aI77
aa(lp174
I244
aI281
aI308
aI179
aI303
aI81
aa(lp175
I245
aI279
aI308
aI38
aI455
aI73
aa(lp176
I244
aI259
aI24
aI177
aI453
aI75
aa(lp177
I244
aI284
aI305
aI177
aI455
aI75
aa(lp178
I242
aI278
aI306
aI177
aI455
aI81
aa(lp179
I242
aI277
aI307
aI177
aI455
aI65
aa(lp180
I240
aI274
aI272
aI133
aI457
aI65
aa(lp181
I240
aI278
aI304
aI91
aI456
aI71
aa(lp182
I38
aI162
aI306
aI135
aI457
aI73
aa(lp183
I52
aI168
aI306
aI183
aI508
aI83
aa(lp184
I238
aI266
aI304
aI32
aI456
aI73
aa(lp185
I238
aI273
aI302
aI137
aI348
aI75
aa(lp186
I238
aI274
aI302
aI137
aI465
aI73
aa(lp187
I238
aI274
aI302
aI127
aI461
aI83
aa(lp188
I240
aI274
aI276
aI137
aI465
aI81
aa(lp189
I240
aI281
aI312
aI131
aI461
aI79
aa(lp190
I242
aI282
aI308
aI131
aI173
aI65
aa(lp191
I242
aI280
aI306
aI135
aI254
aI79
aa(lp192
I244
aI281
aI305
aI133
aI176
aI77
aa(lp193
I244
aI281
aI304
aI133
aI254
aI73
aa(lp194
I244
aI281
aI306
aI135
aI302
aI79
aa(lp195
I243
aI279
aI306
aI65
aI467
aI79
aa(lp196
I242
aI279
aI308
aI135
aI367
aI85
aa(lp197
I242
aI267
aI147
aI133
aI506
aI81
aa(lp198
I242
aI282
aI306
aI133
aI506
aI77
aa(lp199
I282
aI302
aI306
aI139
aI506
aI65
aa(lp200
I281
aI301
aI304
aI141
aI506
aI65
aa(lp201
I282
aI302
aI306
aI139
aI506
aI65
aa(lp202
I282
aI302
aI316
aI139
aI506
aI77
aa(lp203
I278
aI303
aI363
aI137
aI506
aI65
aa(lp204
I278
aI298
aI309
aI135
aI508
aI65
aa(lp205
I282
aI308
aI310
aI133
aI508
aI87
aa(lp206
I278
aI313
aI482
aI133
aI506
aI85
aa(lp207
I276
aI294
aI310
aI141
aI232
aI65
aa(lp208
I276
aI298
aI308
aI139
aI262
aI89
aa(lp209
I277
aI300
aI310
aI135
aI261
aI65
aa(lp210
I279
aI304
aI352
aI135
aI264
aI254
aa(lp211
I278
aI301
aI320
aI139
aI262
aI81
aa(lp212
I278
aI300
aI320
aI22
aI103
aI67
aa(lp213
I278
aI302
aI308
aI139
aI264
aI67
aa(lp214
I278
aI302
aI308
aI139
aI101
aI73
aa(lp215
I281
aI303
aI310
aI34
aI262
aI65
aa(lp216
I282
aI305
aI317
aI133
aI261
aI65
aa(lp217
I281
aI304
aI310
aI135
aI262
aI67
aa.