(lp0
(lp1
I344
aI345
aI193
aI224
aI315
aI51
aa(lp2
I342
aI344
aI191
aI159
aI224
aI89
aa(lp3
I332
aI342
aI155
aI161
aI224
aI61
aa(lp4
I310
aI327
aI173
aI173
aI220
aI77
aa(lp5
I289
aI318
aI187
aI200
aI254
aI45
aa(lp6
I272
aI300
aI150
aI91
aI254
aI49
aa(lp7
I259
aI294
aI218
aI234
aI506
aI35
aa(lp8
I241
aI281
aI219
aI250
aI506
aI35
aa(lp9
I203
aI265
aI243
aI79
aI109
aI31
aa(lp10
I187
aI251
aI252
aI171
aI153
aI35
aa(lp11
I172
aI241
aI258
aI182
aI145
aI35
aa(lp12
I93
aI186
aI151
aI65
aI141
aI35
aa(lp13
I46
aI175
aI85
aI167
aI16
aI37
aa(lp14
I39
aI166
aI82
aI127
aI12
aI39
aa(lp15
I38
aI165
aI79
aI125
aI30
aI41
aa(lp16
I40
aI167
aI82
aI127
aI30
aI41
aa(lp17
I40
aI165
aI84
aI129
aI24
aI39
aa(lp18
I42
aI167
aI129
aI129
aI22
aI39
aa(lp19
I44
aI172
aI86
aI129
aI20
aI41
aa(lp20
I46
aI166
aI86
aI181
aI20
aI41
aa(lp21
I44
aI165
aI87
aI307
aI16
aI37
aa(lp22
I234
aI281
aI80
aI30
aI101
aI41
aa(lp23
I153
aI228
aI80
aI38
aI22
aI41
aa(lp24
I220
aI270
aI133
aI48
aI18
aI41
aa(lp25
I212
aI261
aI76
aI60
aI26
aI43
aa(lp26
I225
aI284
aI139
aI68
aI37
aI45
aa(lp27
I92
aI188
aI72
aI26
aI91
aI31
aa(lp28
I354
aI337
aI86
aI133
aI137
aI27
aa(lp29
I481
aI419
aI84
aI196
aI109
aI33
aa(lp30
I364
aI357
aI80
aI203
aI103
aI37
aa(lp31
I449
aI409
aI81
aI343
aI85
aI41
aa(lp32
I162
aI264
aI333
aI212
aI125
aI37
aa(lp33
I159
aI248
aI507
aI89
aI139
aI35
aa(lp34
I492
aI443
aI506
aI141
aI145
aI45
aa(lp35
I456
aI401
aI188
aI155
aI208
aI37
aa(lp36
I507
aI450
aI462
aI175
aI177
aI41
aa(lp37
I507
aI441
aI507
aI73
aI176
aI41
aa(lp38
I318
aI339
aI507
aI157
aI119
aI29
aa.